; Function Attrs: mustprogress uwtable
define hidden void @_ZN4cvc58internal6theory5arith6linear18ConstraintDatabase23pushAssertionOrderWatchEPNS3_10ConstraintENS0_12NodeTemplateILb0EEE(ptr nocapture noundef nonnull readonly align 8 dereferenceable(488) %this, ptr noundef %c, ptr nocapture noundef readonly %witness) local_unnamed_addr #4 align 2 {
entry:
  %c.addr = alloca ptr, align 8
  store ptr %c, ptr %c.addr, align 8
  %d_watches = getelementptr inbounds i8, ptr %this, i64 272
  %0 = load ptr, ptr %d_watches, align 8
  %d_list.i = getelementptr inbounds i8, ptr %0, i64 200
  %_M_finish.i.i = getelementptr inbounds i8, ptr %0, i64 208
  %1 = load ptr, ptr %_M_finish.i.i, align 8
  %2 = load ptr, ptr %d_list.i, align 8
  %sub.ptr.lhs.cast.i.i = ptrtoint ptr %1 to i64
  %sub.ptr.rhs.cast.i.i = ptrtoint ptr %2 to i64
  %sub.ptr.sub.i.i = sub i64 %sub.ptr.lhs.cast.i.i, %sub.ptr.rhs.cast.i.i
  %sub.ptr.div.i.i = ashr exact i64 %sub.ptr.sub.i.i, 3
  %d_assertionOrder = getelementptr inbounds i8, ptr %c, i64 104
  store i64 %sub.ptr.div.i.i, ptr %d_assertionOrder, align 8
  %d_witness = getelementptr inbounds i8, ptr %c, i64 112
  %3 = load ptr, ptr %d_witness, align 8
  %4 = load ptr, ptr %witness, align 8
  %cmp.not.i = icmp eq ptr %3, %4
  br i1 %cmp.not.i, label %_ZN4cvc58internal12NodeTemplateILb0EEaSERKS2_.exit, label %if.then.i

if.then.i:                                        ; preds = %entry
  store ptr %4, ptr %d_witness, align 8
  br label %_ZN4cvc58internal12NodeTemplateILb0EEaSERKS2_.exit

_ZN4cvc58internal12NodeTemplateILb0EEaSERKS2_.exit: ; preds = %entry, %if.then.i
  %5 = load ptr, ptr %d_watches, align 8
  %d_assertionOrderWatches4 = getelementptr inbounds i8, ptr %5, i64 160
  call void @_ZN4cvc57context6CDListIPNS_8internal6theory5arith6linear10ConstraintENS6_21AssertionOrderCleanupESaIS7_EE9push_backERKS7_(ptr noundef nonnull align 8 dereferenceable(74) %d_assertionOrderWatches4, ptr noundef nonnull align 8 dereferenceable(8) %c.addr)
  ret void
}